target datalayout = "e-m:e-p270:32:32-p271:32:32-p272:64:64-i64:64-i128:128-f80:128-n8:16:32:64-S128"
target triple = "x86_64-pc-linux-gnu"

%struct.rb_vm_struct = type { i64, %struct.anon.0, ptr, i64, %struct.ccan_list_head, i32, i8, i64, ptr, [5 x i64], i64, i64, i64, i64, i64, i64, i64, i64, i64, ptr, ptr, ptr, %struct.anon.4, ptr, i32, %struct.ccan_list_head, %union.pthread_mutex_t, i64, i64, i64, i64, i32, %struct.anon.5, ptr, ptr, ptr, ptr, ptr, ptr, ptr, ptr, i64, [1023 x ptr], %struct.anon.6 }
%struct.anon.0 = type { %struct.ccan_list_head, i32, i32, ptr, ptr, %struct.anon.1, %struct.anon.3 }
%struct.anon.1 = type { %union.pthread_mutex_t, ptr, i32, %union.pthread_cond_t, i8 }
%union.pthread_cond_t = type { %struct.__pthread_cond_s }
%struct.__pthread_cond_s = type { %union.__atomic_wide_counter, %union.__atomic_wide_counter, [2 x i32], [2 x i32], i32, i32, [2 x i32] }
%union.__atomic_wide_counter = type { i64 }
%struct.anon.3 = type { %union.pthread_mutex_t, ptr, i8, %union.pthread_cond_t, i32, i32, i32, i32, %struct.ccan_list_head, i32, %struct.ccan_list_head, %struct.ccan_list_head, %struct.ccan_list_head, i8, %union.pthread_cond_t, %union.pthread_cond_t, i8, i32, i32 }
%struct.anon.4 = type { [65 x i64] }
%struct.ccan_list_head = type { %struct.ccan_list_node }
%struct.ccan_list_node = type { ptr, ptr }
%union.pthread_mutex_t = type { %struct.__pthread_mutex_s }
%struct.__pthread_mutex_s = type { i32, i32, i32, i32, i32, i16, i16, %struct.__pthread_internal_list }
%struct.__pthread_internal_list = type { ptr, ptr }
%struct.anon.5 = type { ptr, ptr }
%struct.anon.6 = type { i64, i64, i64, i64 }
%struct.rbimpl_size_mul_overflow_tag = type { i8, i64 }
%struct.rb_objspace = type { %struct.anon.33, %struct.rb_gc_config, [3 x i8], %struct.anon.19, i32, i64, [5 x %struct.rb_heap_struct], i64, ptr, %struct.anon.34, %struct.mark_stack, i64, %struct.anon.35, ptr, %struct.anon.36, i64, %struct.anon.37, %struct.anon.38, %struct.anon.39, ptr, ptr, i64, ptr, i32, i64 }
%struct.anon.33 = type { i64, i64 }
%struct.rb_gc_config = type { i8 }
%struct.anon.19 = type { i16, [2 x i8] }
%struct.rb_heap_struct = type { i16, i64, i64, i64, i64, i64, i64, i64, i64, ptr, %struct.ccan_list_head, ptr, ptr, i64, ptr, i64, i64 }
%struct.anon.34 = type { i32 }
%struct.mark_stack = type { ptr, ptr, i32, i32, i64, i64 }
%struct.anon.35 = type { ptr, i64, i64, [2 x i64], i64, i64, i64 }
%struct.anon.36 = type { i32, i32, ptr, ptr, i64, i64, double, i64, i64, i64, i64, double, i64, i64, i64, i64, %struct.timespec, i64, %struct.timespec, i64, i64 }
%struct.timespec = type { i64, i64 }
%struct.anon.37 = type { i64, i32, i64, i64, i64, i64, i64, i64, i64 }
%struct.anon.38 = type { [31 x i64], [31 x i64], [31 x i64], [31 x i64], i64, ptr }
%struct.anon.39 = type { i64, i64 }

@ruby_current_vm_ptr = external global ptr, align 8
@rb_eArgError = external global i64, align 8
@.str.83 = private unnamed_addr constant [40 x i8] c"integer overflow: %zu * %zu + %zu > %zu\00", align 1
@.str.299 = private unnamed_addr constant [26 x i8] c"too large allocation size\00", align 1

; Function Attrs: nounwind sspstrong uwtable
define dso_local ptr @rb_gc_get_objspace() #0 {
  %1 = call ptr @rb_current_vm()
  %2 = getelementptr inbounds nuw %struct.rb_vm_struct, ptr %1, i32 0, i32 32
  %3 = getelementptr inbounds nuw %struct.anon.5, ptr %2, i32 0, i32 0
  %4 = load ptr, ptr %3, align 8, !tbaa !55
  ret ptr %4
}

; Function Attrs: nounwind sspstrong uwtable
define internal zeroext i1 @rb_gc_impl_during_gc_p(ptr noundef %0) #0 {
  %2 = alloca ptr, align 8
  %3 = alloca ptr, align 8
  store ptr %0, ptr %2, align 8, !tbaa !76
  call void @llvm.lifetime.start.p0(i64 8, ptr %3) #6
  %4 = load ptr, ptr %2, align 8, !tbaa !76
  store ptr %4, ptr %3, align 8, !tbaa !125
  %5 = load ptr, ptr %3, align 8, !tbaa !125
  %6 = getelementptr inbounds nuw %struct.rb_objspace, ptr %5, i32 0, i32 3
  %7 = load i16, ptr %6, align 4
  %8 = lshr i16 %7, 5
  %9 = and i16 %8, 1
  %10 = zext i16 %9 to i32
  %11 = icmp ne i32 %10, 0
  call void @llvm.lifetime.end.p0(i64 8, ptr %3) #6
  ret i1 %11
}

; Function Attrs: inlinehint nounwind sspstrong uwtable
define internal ptr @rb_current_vm() #2 {
  %1 = load ptr, ptr @ruby_current_vm_ptr, align 8, !tbaa !74
  ret ptr %1
}

; Function Attrs: inlinehint nounwind sspstrong willreturn memory(none) uwtable
define internal { i8, i64 } @rbimpl_size_add_overflow(i64 noundef %0, i64 noundef %1) #7 {
  %3 = alloca %struct.rbimpl_size_mul_overflow_tag, align 8
  %4 = alloca i64, align 8
  %5 = alloca i64, align 8
  store i64 %0, ptr %4, align 8, !tbaa !18
  store i64 %1, ptr %5, align 8, !tbaa !18
  call void @llvm.memset.p0.i64(ptr align 8 %3, i8 0, i64 16, i1 false)
  %6 = load i64, ptr %4, align 8, !tbaa !18
  %7 = load i64, ptr %5, align 8, !tbaa !18
  %8 = getelementptr inbounds nuw %struct.rbimpl_size_mul_overflow_tag, ptr %3, i32 0, i32 1
  %9 = call { i64, i1 } @llvm.uadd.with.overflow.i64(i64 %6, i64 %7)
  %10 = extractvalue { i64, i1 } %9, 1
  %11 = extractvalue { i64, i1 } %9, 0
  store i64 %11, ptr %8, align 8
  %12 = getelementptr inbounds nuw %struct.rbimpl_size_mul_overflow_tag, ptr %3, i32 0, i32 0
  %13 = zext i1 %10 to i8
  store i8 %13, ptr %12, align 8, !tbaa !120
  %14 = load { i8, i64 }, ptr %3, align 8
  ret { i8, i64 } %14
}

; Function Attrs: inlinehint nounwind sspstrong willreturn memory(none) uwtable
define internal { i8, i64 } @rbimpl_size_mul_overflow(i64 noundef %0, i64 noundef %1) #7 {
  %3 = alloca %struct.rbimpl_size_mul_overflow_tag, align 8
  %4 = alloca i64, align 8
  %5 = alloca i64, align 8
  store i64 %0, ptr %4, align 8, !tbaa !18
  store i64 %1, ptr %5, align 8, !tbaa !18
  call void @llvm.memset.p0.i64(ptr align 8 %3, i8 0, i64 16, i1 false)
  %6 = load i64, ptr %4, align 8, !tbaa !18
  %7 = load i64, ptr %5, align 8, !tbaa !18
  %8 = getelementptr inbounds nuw %struct.rbimpl_size_mul_overflow_tag, ptr %3, i32 0, i32 1
  %9 = call { i64, i1 } @llvm.umul.with.overflow.i64(i64 %6, i64 %7)
  %10 = extractvalue { i64, i1 } %9, 1
  %11 = extractvalue { i64, i1 } %9, 0
  store i64 %11, ptr %8, align 8
  %12 = getelementptr inbounds nuw %struct.rbimpl_size_mul_overflow_tag, ptr %3, i32 0, i32 0
  %13 = zext i1 %10 to i8
  store i8 %13, ptr %12, align 8, !tbaa !120
  %14 = load { i8, i64 }, ptr %3, align 8
  ret { i8, i64 } %14
}

; Function Attrs: nounwind sspstrong uwtable
define internal ptr @handle_malloc_failure(ptr noundef %0) #0 {
  %2 = alloca ptr, align 8
  store ptr %0, ptr %2, align 8, !tbaa !76
  %3 = load ptr, ptr %2, align 8, !tbaa !76
  %4 = icmp ne ptr %3, null
  %5 = xor i1 %4, true
  %6 = xor i1 %5, true
  %7 = zext i1 %6 to i32
  %8 = sext i32 %7 to i64
  %9 = call i64 @llvm.expect.i64(i64 %8, i64 1)
  %10 = icmp ne i64 %9, 0
  br i1 %10, label %11, label %13

11:                                               ; preds = %1
  %12 = load ptr, ptr %2, align 8, !tbaa !76
  ret ptr %12

13:                                               ; preds = %1
  call void @ruby_memerror() #46
  unreachable
}

; Function Attrs: nounwind sspstrong uwtable
define internal ptr @ruby_xmalloc_body(i64 noundef %0) #0 {
  %2 = alloca i64, align 8
  store i64 %0, ptr %2, align 8, !tbaa !18
  %3 = load i64, ptr %2, align 8, !tbaa !18
  %4 = icmp slt i64 %3, 0
  br i1 %4, label %5, label %6

5:                                                ; preds = %1
  call void @negative_size_allocation_error(ptr noundef @.str.299) #46
  unreachable

6:                                                ; preds = %1
  %7 = call ptr @rb_gc_get_objspace()
  %8 = load i64, ptr %2, align 8, !tbaa !18
  %9 = call ptr @rb_gc_impl_malloc(ptr noundef %7, i64 noundef %8)
  ret ptr %9
}

; Function Attrs: nounwind sspstrong willreturn memory(read) uwtable
define dso_local i32 @rb_during_gc() #20 {
  %1 = alloca i32, align 4
  %2 = alloca ptr, align 8
  %3 = alloca ptr, align 8
  %4 = alloca i32, align 4
  call void @llvm.lifetime.start.p0(i64 8, ptr %2) #6
  call void @llvm.lifetime.start.p0(i64 8, ptr %3) #6
  %5 = call ptr @rb_current_vm()
  store ptr %5, ptr %3, align 8, !tbaa !74
  %6 = load ptr, ptr %3, align 8, !tbaa !74
  %7 = icmp ne ptr %6, null
  br i1 %7, label %8, label %13

8:                                                ; preds = %0
  %9 = load ptr, ptr %3, align 8, !tbaa !74
  %10 = getelementptr inbounds nuw %struct.rb_vm_struct, ptr %9, i32 0, i32 32
  %11 = getelementptr inbounds nuw %struct.anon.5, ptr %10, i32 0, i32 0
  %12 = load ptr, ptr %11, align 8, !tbaa !55
  store ptr %12, ptr %2, align 8, !tbaa !76
  br label %14

13:                                               ; preds = %0
  store i32 0, ptr %1, align 4
  store i32 1, ptr %4, align 4
  br label %18

14:                                               ; preds = %8
  %15 = load ptr, ptr %2, align 8, !tbaa !76
  %16 = call zeroext i1 @rb_gc_impl_during_gc_p(ptr noundef %15)
  %17 = zext i1 %16 to i32
  store i32 %17, ptr %1, align 4
  store i32 1, ptr %4, align 4
  br label %18

18:                                               ; preds = %14, %13
  call void @llvm.lifetime.end.p0(i64 8, ptr %3) #6
  call void @llvm.lifetime.end.p0(i64 8, ptr %2) #6
  %19 = load i32, ptr %1, align 4
  ret i32 %19
}

; Function Attrs: inlinehint nounwind sspstrong uwtable
define internal { i8, i64 } @size_mul_add_overflow(i64 noundef %0, i64 noundef %1, i64 noundef %2) #2 {
  %4 = alloca %struct.rbimpl_size_mul_overflow_tag, align 8
  %5 = alloca i64, align 8
  %6 = alloca i64, align 8
  %7 = alloca i64, align 8
  %8 = alloca %struct.rbimpl_size_mul_overflow_tag, align 8
  %9 = alloca %struct.rbimpl_size_mul_overflow_tag, align 8
  store i64 %0, ptr %5, align 8, !tbaa !18
  store i64 %1, ptr %6, align 8, !tbaa !18
  store i64 %2, ptr %7, align 8, !tbaa !18
  call void @llvm.lifetime.start.p0(i64 16, ptr %8) #6
  %10 = load i64, ptr %5, align 8, !tbaa !18
  %11 = load i64, ptr %6, align 8, !tbaa !18
  %12 = call { i8, i64 } @rbimpl_size_mul_overflow(i64 noundef %10, i64 noundef %11) #42
  %13 = getelementptr inbounds nuw { i8, i64 }, ptr %8, i32 0, i32 0
  %14 = extractvalue { i8, i64 } %12, 0
  store i8 %14, ptr %13, align 8
  %15 = getelementptr inbounds nuw { i8, i64 }, ptr %8, i32 0, i32 1
  %16 = extractvalue { i8, i64 } %12, 1
  store i64 %16, ptr %15, align 8
  call void @llvm.lifetime.start.p0(i64 16, ptr %9) #6
  %17 = getelementptr inbounds nuw %struct.rbimpl_size_mul_overflow_tag, ptr %8, i32 0, i32 1
  %18 = load i64, ptr %17, align 8, !tbaa !124
  %19 = load i64, ptr %7, align 8, !tbaa !18
  %20 = call { i8, i64 } @rbimpl_size_add_overflow(i64 noundef %18, i64 noundef %19) #42
  %21 = getelementptr inbounds nuw { i8, i64 }, ptr %9, i32 0, i32 0
  %22 = extractvalue { i8, i64 } %20, 0
  store i8 %22, ptr %21, align 8
  %23 = getelementptr inbounds nuw { i8, i64 }, ptr %9, i32 0, i32 1
  %24 = extractvalue { i8, i64 } %20, 1
  store i64 %24, ptr %23, align 8
  %25 = getelementptr inbounds nuw %struct.rbimpl_size_mul_overflow_tag, ptr %4, i32 0, i32 0
  %26 = getelementptr inbounds nuw %struct.rbimpl_size_mul_overflow_tag, ptr %8, i32 0, i32 0
  %27 = load i8, ptr %26, align 8, !tbaa !120, !range !122, !noundef !123
  %28 = trunc i8 %27 to i1
  br i1 %28, label %33, label %29

29:                                               ; preds = %3
  %30 = getelementptr inbounds nuw %struct.rbimpl_size_mul_overflow_tag, ptr %9, i32 0, i32 0
  %31 = load i8, ptr %30, align 8, !tbaa !120, !range !122, !noundef !123
  %32 = trunc i8 %31 to i1
  br label %33

33:                                               ; preds = %29, %3
  %34 = phi i1 [ true, %3 ], [ %32, %29 ]
  %35 = zext i1 %34 to i8
  store i8 %35, ptr %25, align 8, !tbaa !120
  %36 = getelementptr i8, ptr %4, i64 1
  call void @llvm.memset.p0.i64(ptr align 1 %36, i8 0, i64 7, i1 false)
  %37 = getelementptr inbounds nuw %struct.rbimpl_size_mul_overflow_tag, ptr %4, i32 0, i32 1
  %38 = getelementptr inbounds nuw %struct.rbimpl_size_mul_overflow_tag, ptr %9, i32 0, i32 1
  %39 = load i64, ptr %38, align 8, !tbaa !124
  store i64 %39, ptr %37, align 8, !tbaa !124
  call void @llvm.lifetime.end.p0(i64 16, ptr %9) #6
  call void @llvm.lifetime.end.p0(i64 16, ptr %8) #6
  %40 = load { i8, i64 }, ptr %4, align 8
  ret { i8, i64 } %40
}

; Function Attrs: nounwind sspstrong allocsize(0) uwtable
define dso_local noalias nonnull ptr @ruby_xmalloc(i64 noundef %0) #18 {
  %2 = alloca i64, align 8
  store i64 %0, ptr %2, align 8, !tbaa !18
  %3 = load i64, ptr %2, align 8, !tbaa !18
  %4 = call ptr @ruby_xmalloc_body(i64 noundef %3)
  %5 = call ptr @handle_malloc_failure(ptr noundef %4)
  ret ptr %5
}

; Function Attrs: inlinehint nounwind sspstrong uwtable
define internal i64 @size_mul_add_or_raise(i64 noundef %0, i64 noundef %1, i64 noundef %2, i64 noundef %3) #2 {
  %5 = alloca i64, align 8
  %6 = alloca i64, align 8
  %7 = alloca i64, align 8
  %8 = alloca i64, align 8
  %9 = alloca %struct.rbimpl_size_mul_overflow_tag, align 8
  store i64 %0, ptr %5, align 8, !tbaa !18
  store i64 %1, ptr %6, align 8, !tbaa !18
  store i64 %2, ptr %7, align 8, !tbaa !18
  store i64 %3, ptr %8, align 8, !tbaa !18
  call void @llvm.lifetime.start.p0(i64 16, ptr %9) #6
  %10 = load i64, ptr %5, align 8, !tbaa !18
  %11 = load i64, ptr %6, align 8, !tbaa !18
  %12 = load i64, ptr %7, align 8, !tbaa !18
  %13 = call { i8, i64 } @size_mul_add_overflow(i64 noundef %10, i64 noundef %11, i64 noundef %12)
  %14 = getelementptr inbounds nuw { i8, i64 }, ptr %9, i32 0, i32 0
  %15 = extractvalue { i8, i64 } %13, 0
  store i8 %15, ptr %14, align 8
  %16 = getelementptr inbounds nuw { i8, i64 }, ptr %9, i32 0, i32 1
  %17 = extractvalue { i8, i64 } %13, 1
  store i64 %17, ptr %16, align 8
  %18 = getelementptr inbounds nuw %struct.rbimpl_size_mul_overflow_tag, ptr %9, i32 0, i32 0
  %19 = load i8, ptr %18, align 8, !tbaa !120, !range !122, !noundef !123
  %20 = trunc i8 %19 to i1
  %21 = xor i1 %20, true
  %22 = xor i1 %21, true
  %23 = xor i1 %22, true
  %24 = zext i1 %23 to i32
  %25 = sext i32 %24 to i64
  %26 = call i64 @llvm.expect.i64(i64 %25, i64 1)
  %27 = icmp ne i64 %26, 0
  br i1 %27, label %28, label %31

28:                                               ; preds = %4
  %29 = getelementptr inbounds nuw %struct.rbimpl_size_mul_overflow_tag, ptr %9, i32 0, i32 1
  %30 = load i64, ptr %29, align 8, !tbaa !124
  call void @llvm.lifetime.end.p0(i64 16, ptr %9) #6
  ret i64 %30

31:                                               ; preds = %4
  %32 = call i32 @rb_during_gc() #44
  %33 = icmp ne i32 %32, 0
  br i1 %33, label %34, label %35

34:                                               ; preds = %31
  call void @rb_memerror() #45
  unreachable

35:                                               ; preds = %31
  %36 = load i64, ptr %8, align 8, !tbaa !18
  %37 = load i64, ptr %5, align 8, !tbaa !18
  %38 = load i64, ptr %6, align 8, !tbaa !18
  %39 = load i64, ptr %7, align 8, !tbaa !18
  call void (i64, ptr, ...) @gc_raise(i64 noundef %36, ptr noundef @.str.83, i64 noundef %37, i64 noundef %38, i64 noundef %39, i64 noundef -1) #46
  unreachable
}

; Function Attrs: nounwind sspstrong uwtable
define hidden noalias ptr @rb_xmalloc_mul_add(i64 noundef %0, i64 noundef %1, i64 noundef %2) #0 {
  %4 = alloca i64, align 8
  %5 = alloca i64, align 8
  %6 = alloca i64, align 8
  %7 = alloca i64, align 8
  store i64 %0, ptr %4, align 8, !tbaa !18
  store i64 %1, ptr %5, align 8, !tbaa !18
  store i64 %2, ptr %6, align 8, !tbaa !18
  call void @llvm.lifetime.start.p0(i64 8, ptr %7) #6
  %8 = load i64, ptr %4, align 8, !tbaa !18
  %9 = load i64, ptr %5, align 8, !tbaa !18
  %10 = load i64, ptr %6, align 8, !tbaa !18
  %11 = load i64, ptr @rb_eArgError, align 8, !tbaa !18
  %12 = call i64 @size_mul_add_or_raise(i64 noundef %8, i64 noundef %9, i64 noundef %10, i64 noundef %11)
  store i64 %12, ptr %7, align 8, !tbaa !18
  %13 = load i64, ptr %7, align 8, !tbaa !18
  %14 = call noalias nonnull ptr @ruby_xmalloc(i64 noundef %13) #50
  call void @llvm.lifetime.end.p0(i64 8, ptr %7) #6
  ret ptr %14
}