; Function Attrs: nounwind sspstrong uwtable
define hidden noalias nonnull ptr @rb_xmalloc_mul_add(i64 noundef %0, i64 noundef %1, i64 noundef %2) local_unnamed_addr #0 {
  %4 = load i64, ptr @rb_eArgError, align 8, !tbaa !93
  %5 = tail call { i64, i1 } @llvm.umul.with.overflow.i64(i64 %0, i64 %1)
  %6 = extractvalue { i64, i1 } %5, 1
  %7 = extractvalue { i64, i1 } %5, 0
  %8 = tail call { i64, i1 } @llvm.uadd.with.overflow.i64(i64 %7, i64 %2)
  %9 = extractvalue { i64, i1 } %8, 1
  %narrow.i.i = or i1 %6, %9
  br i1 %narrow.i.i, label %10, label %size_mul_add_or_raise.exit, !prof !79

10:                                               ; preds = %3
  %11 = load ptr, ptr @ruby_current_vm_ptr, align 8, !tbaa !62
  %.not.i.i = icmp eq ptr %11, null
  br i1 %.not.i.i, label %rb_during_gc.exit.thread.i, label %rb_during_gc.exit.i

rb_during_gc.exit.i:                              ; preds = %10
  %12 = getelementptr inbounds nuw i8, ptr %11, i64 1296
  %13 = load ptr, ptr %12, align 8, !tbaa !63
  %14 = getelementptr i8, ptr %13, i64 20
  %.val.i.i = load i16, ptr %14, align 4
  %15 = and i16 %.val.i.i, 32
  %.not.i = icmp eq i16 %15, 0
  br i1 %.not.i, label %rb_during_gc.exit.thread.i, label %16

16:                                               ; preds = %rb_during_gc.exit.i
  tail call void @rb_memerror() #62
  unreachable

rb_during_gc.exit.thread.i:                       ; preds = %rb_during_gc.exit.i, %10
  tail call void (i64, ptr, ...) @gc_raise(i64 noundef %4, ptr noundef nonnull @.str.83, i64 noundef %0, i64 noundef %1, i64 noundef %2, i64 noundef -1) #63
  unreachable

size_mul_add_or_raise.exit:                       ; preds = %3
  %17 = extractvalue { i64, i1 } %8, 0
  %18 = icmp slt i64 %17, 0
  br i1 %18, label %19, label %ruby_xmalloc_body.exit.i

19:                                               ; preds = %size_mul_add_or_raise.exit
  tail call fastcc void @negative_size_allocation_error() #63
  unreachable

ruby_xmalloc_body.exit.i:                         ; preds = %size_mul_add_or_raise.exit
  %20 = load ptr, ptr @ruby_current_vm_ptr, align 8, !tbaa !62
  %21 = getelementptr inbounds nuw i8, ptr %20, i64 1296
  %22 = load ptr, ptr %21, align 8, !tbaa !63
  %23 = tail call fastcc noalias noundef ptr @rb_gc_impl_malloc(ptr noundef %22, i64 noundef %17)
  %.not.i.i4 = icmp eq ptr %23, null
  br i1 %.not.i.i4, label %24, label %ruby_xmalloc.exit, !prof !79

24:                                               ; preds = %ruby_xmalloc_body.exit.i
  tail call fastcc void @ruby_memerror() #63
  unreachable

ruby_xmalloc.exit:                                ; preds = %ruby_xmalloc_body.exit.i
  ret ptr %23
}